Certificate Request:
    Data:
        Version: 1 (0x0)
        Subject: C = XX
        Subject Public Key Info:
            Public Key Algorithm: rsaEncryption
                Public-Key: (2048 bit)
                Modulus:
                    00:b0:4a:a1:0b:78:fe:de:42:d9:d1:1a:c6:53:43:
                    49:b9:9c:19:24:bb:3f:c5:ed:1a:81:57:e8:d4:6f:
                    18:14:38:a2:a9:cb:41:59:d8:10:0e:ca:38:69:5d:
                    e4:08:cf:bb:e7:f2:02:9d:6b:aa:c6:72:e2:66:98:
                    f2:ff:12:2f:81:78:01:45:e0:37:f6:7d:49:0d:97:
                    ae:00:99:75:04:28:f5:b7:b3:ab:96:b0:2a:c1:54:
                    3b:97:bf:bc:df:61:26:3b:36:d3:97:cd:9b:d7:24:
                    46:ed:76:3b:ec:3c:6e:af:df:10:69:84:5b:0a:01:
                    1b:2b:af:da:50:ed:75:87:f7:3d:05:2c:91:00:e5:
                    47:d4:0d:f7:da:c6:9f:65:67:77:cb:07:5a:61:a1:
                    1f:47:de:0a:48:6b:44:e2:42:d9:e7:ef:b7:e6:50:
                    f0:a1:5b:00:26:83:7c:43:0e:0d:71:f3:b6:32:32:
                    08:56:66:ef:32:c1:7d:ce:f0:a6:80:d0:27:7e:ec:
                    d2:82:74:35:bb:da:b4:8f:56:3a:2d:e1:48:04:48:
                    2a:ec:66:d1:a5:3d:d4:d8:6f:46:54:d1:38:fc:e8:
                    18:91:1d:50:0b:87:d1:dd:c3:48:9e:46:6a:d1:d8:
                    a6:42:02:b5:82:e5:da:5a:d3:f9:5b:d9:22:6e:41:
                    2d:4d
                Exponent: 65537 (0x10001)
        Attributes:
            Requested Extensions:
                X509v3 Basic Constraints: 
                    CA:FALSE
                X509v3 Key Usage: 
                    Digital Signature, Non Repudiation, Key Encipherment
                X509v3 Subject Alternative Name: 
                    DNS:example.test
    Signature Algorithm: sha256WithRSAEncryption
    Signature Value:
        a6:f8:79:a5:20:7b:36:9d:b2:b3:2b:13:df:90:eb:32:5b:bb:
        a1:10:5a:46:e8:c3:f1:50:b5:86:94:33:c3:84:0c:5c:c1:29:
        9b:85:43:5d:b1:9e:e6:5a:4c:95:01:6e:2a:47:63:cf:3a:e1:
        07:63:6b:22:89:54:2d:66:9d:5b:4e:df:b6:0a:84:97:56:11:
        89:41:d8:2c:4f:39:36:eb:33:ea:f8:12:3d:82:ce:e8:e0:34:
        fc:f3:52:91:f8:16:39:e5:f2:21:32:1d:3d:d2:9e:e2:41:b6:
        9c:14:c7:8a:15:60:bc:74:d0:4c:35:29:e5:1b:ba:0b:eb:54:
        63:0e:91:f2:e5:a0:f3:39:3c:72:9c:4f:54:89:ac:f8:77:30:
        54:58:f1:99:77:f2:6a:43:fc:9e:16:53:14:3d:48:ee:09:89:
        f9:81:1a:ef:8f:b3:b8:65:46:cf:67:2a:d3:94:9a:42:dc:6e:
        a1:e9:26:68:63:1c:53:8e:25:95:3f:0e:da:a1:6d:cb:7c:c1:
        73:70:80:90:b9:95:c8:37:7e:b6:36:37:21:05:5b:54:f0:6d:
        43:59:5b:34:9d:ed:fc:e1:e9:de:c2:08:bb:e0:46:3a:9e:29:
        6b:5d:73:58:ef:ca:c2:3e:ff:9f:95:53:73:33:66:7d:03:4e:
        af:5d:4d:ff
-----BEGIN CERTIFICATE REQUEST-----
MIIClDCCAXwCAQAwDTELMAkGA1UEBhMCWFgwggEiMA0GCSqGSIb3DQEBAQUAA4IB
DwAwggEKAoIBAQCwSqELeP7eQtnRGsZTQ0m5nBkkuz/F7RqBV+jUbxgUOKKpy0FZ
2BAOyjhpXeQIz7vn8gKda6rGcuJmmPL/Ei+BeAFF4Df2fUkNl64AmXUEKPW3s6uW
sCrBVDuXv7zfYSY7NtOXzZvXJEbtdjvsPG6v3xBphFsKARsrr9pQ7XWH9z0FLJEA
5UfUDffaxp9lZ3fLB1phoR9H3gpIa0TiQtnn77fmUPChWwAmg3xDDg1x87YyMghW
Zu8ywX3O8KaA0Cd+7NKCdDW72rSPVjot4UgESCrsZtGlPdTYb0ZU0Tj86BiRHVAL
h9Hdw0ieRmrR2KZCArWC5dpa0/lb2SJuQS1NAgMBAAGgQjBABgkqhkiG9w0BCQ4x
MzAxMAkGA1UdEwQCMAAwCwYDVR0PBAQDAgXgMBcGA1UdEQQQMA6CDGV4YW1wbGUu
dGVzdDANBgkqhkiG9w0BAQsFAAOCAQEApvh5pSB7Np2ysysT35DrMlu7oRBaRujD
8VC1hpQzw4QMXMEpm4VDXbGe5lpMlQFuKkdjzzrhB2NrIolULWadW07ftgqEl1YR
iUHYLE85Nusz6vgSPYLO6OA0/PNSkfgWOeXyITIdPdKe4kG2nBTHihVgvHTQTDUp
5Ru6C+tUYw6R8uWg8zk8cpxPVIms+HcwVFjxmXfyakP8nhZTFD1I7gmJ+YEa74+z
uGVGz2cq05SaQtxuoekmaGMcU44llT8O2qFty3zBc3CAkLmVyDd+tjY3IQVbVPBt
Q1lbNJ3t/OHp3sIIu+BGOp4pa11zWO/Kwj7/n5VTczNmfQNOr11N/w==
-----END CERTIFICATE REQUEST-----
