Certificate Request:
    Data:
        Version: 1 (0x0)
        Subject: C = XX, CN = example.test
        Subject Public Key Info:
            Public Key Algorithm: rsaEncryption
                Public-Key: (2048 bit)
                Modulus:
                    00:b4:d6:5f:56:91:25:86:03:d6:ab:36:fb:9c:d6:
                    ff:4e:8c:9c:52:cb:95:2f:f8:2a:7b:bc:5b:84:c7:
                    9e:79:3c:cd:85:c2:af:a5:b2:f5:6c:66:62:f2:30:
                    c6:54:d6:17:98:8c:20:c4:31:2e:a8:05:3a:cd:f3:
                    ca:85:3e:c6:8d:91:cd:75:dd:0f:5c:07:91:b6:c3:
                    47:d0:33:a2:bf:78:d6:08:ef:63:54:6a:40:ee:1b:
                    cd:39:93:b2:4f:fd:02:58:ac:4f:72:92:ec:6e:00:
                    b2:1d:01:1b:b2:64:63:9a:4b:40:74:69:18:0e:ce:
                    51:d0:3d:7b:83:5b:16:d3:ba:89:5b:68:cd:bf:f8:
                    9a:82:ec:9a:27:cf:2d:88:5b:13:e6:4f:b5:62:73:
                    96:20:c4:68:1d:e9:60:3f:7b:13:ab:5b:6d:4a:c8:
                    46:49:c2:ef:36:c9:26:2e:be:aa:60:73:80:2b:b1:
                    47:9b:09:03:11:f0:c2:4d:ec:76:ea:a9:f0:50:90:
                    e0:8f:82:c0:55:a2:5a:61:15:2c:63:70:fd:f2:9d:
                    d5:31:43:b0:bb:da:be:9d:10:b7:63:7d:60:3b:af:
                    e7:3b:d0:17:c8:c6:01:b6:71:ce:6a:4f:a9:c4:e5:
                    2d:c7:5e:be:7a:a7:b8:c3:d2:20:17:a3:a1:b8:7d:
                    2d:dd
                Exponent: 65537 (0x10001)
        Attributes:
            (none)
            Requested Extensions:
    Signature Algorithm: sha256WithRSAEncryption
    Signature Value:
        6e:8a:51:bb:28:1b:f8:3b:0e:b8:c5:89:00:1c:bf:60:2e:1b:
        29:1c:4f:f1:50:53:04:23:f1:80:8b:d5:9e:aa:41:53:f3:cb:
        f1:51:ae:fd:72:aa:a8:39:46:4b:ad:16:b2:ee:aa:52:b0:30:
        19:98:b1:8f:c6:10:d8:3f:3a:c3:52:cf:b6:df:ae:c6:f9:56:
        f4:dc:b7:db:f7:4e:2b:15:36:62:07:71:8d:e1:5b:c5:01:0b:
        f8:9f:d3:73:0c:25:21:21:d0:7d:13:1d:92:75:8e:e5:c1:dc:
        fe:08:db:86:75:09:d1:6d:d1:9a:2b:c4:69:b9:6b:79:87:69:
        b6:7a:29:51:d5:54:73:a4:3c:40:78:0c:71:a7:c4:23:b0:ed:
        14:31:f3:d1:07:43:4b:90:64:8c:25:2d:3d:d7:cd:85:11:47:
        d5:bd:18:de:ea:62:6f:1a:ce:2d:83:7f:90:88:6f:f4:6f:9b:
        74:48:54:fa:c1:2f:9b:6f:00:fd:66:84:3a:fa:04:b1:95:fc:
        a8:7b:2d:6c:83:cd:f2:2b:c0:65:57:d3:6f:b8:27:4c:6d:54:
        2f:bb:ce:8f:b0:41:0d:62:0b:8b:a3:22:65:dd:2c:10:3c:d3:
        ea:d6:1a:39:cd:75:36:f8:35:ad:c6:64:2b:73:83:ee:97:7a:
        cd:b9:75:d1
-----BEGIN CERTIFICATE REQUEST-----
MIICaTCCAVECAQAwJDELMAkGA1UEBhMCWFgxFTATBgNVBAMMDGV4YW1wbGUudGVz
dDCCASIwDQYJKoZIhvcNAQEBBQADggEPADCCAQoCggEBALTWX1aRJYYD1qs2+5zW
/06MnFLLlS/4Knu8W4THnnk8zYXCr6Wy9WxmYvIwxlTWF5iMIMQxLqgFOs3zyoU+
xo2RzXXdD1wHkbbDR9Azor941gjvY1RqQO4bzTmTsk/9AlisT3KS7G4Ash0BG7Jk
Y5pLQHRpGA7OUdA9e4NbFtO6iVtozb/4moLsmifPLYhbE+ZPtWJzliDEaB3pYD97
E6tbbUrIRknC7zbJJi6+qmBzgCuxR5sJAxHwwk3sduqp8FCQ4I+CwFWiWmEVLGNw
/fKd1TFDsLvavp0Qt2N9YDuv5zvQF8jGAbZxzmpPqcTlLcdevnqnuMPSIBejobh9
Ld0CAwEAAaAAMA0GCSqGSIb3DQEBCwUAA4IBAQBuilG7KBv4Ow64xYkAHL9gLhsp
HE/xUFMEI/GAi9WeqkFT88vxUa79cqqoOUZLrRay7qpSsDAZmLGPxhDYPzrDUs+2
367G+Vb03Lfb904rFTZiB3GN4VvFAQv4n9NzDCUhIdB9Ex2SdY7lwdz+CNuGdQnR
bdGaK8RpuWt5h2m2eilR1VRzpDxAeAxxp8QjsO0UMfPRB0NLkGSMJS09182FEUfV
vRje6mJvGs4tg3+QiG/0b5t0SFT6wS+bbwD9ZoQ6+gSxlfyoey1sg83yK8BlV9Nv
uCdMbVQvu86PsEENYguLoyJl3SwQPNPq1ho5zXU2+DWtxmQrc4Pul3rNuXXR
-----END CERTIFICATE REQUEST-----
